target datalayout = "e-m:e-p270:32:32-p271:32:32-p272:64:64-i64:64-i128:128-f80:128-n8:16:32:64-S128"
target triple = "x86_64-pc-linux-gnu"

; Function Attrs: nounwind uwtable
define dso_local ptr @lpShrinkToFit(ptr noundef %0) #0 {
  %2 = alloca ptr, align 8
  %3 = alloca ptr, align 8
  %4 = alloca i64, align 8
  %5 = alloca i32, align 4
  store ptr %0, ptr %3, align 8, !tbaa !5
  call void @llvm.lifetime.start.p0(i64 8, ptr %4) #10
  %6 = load ptr, ptr %3, align 8, !tbaa !5
  %7 = getelementptr inbounds i8, ptr %6, i64 0
  %8 = load i8, ptr %7, align 1, !tbaa !12
  %9 = zext i8 %8 to i32
  %10 = shl i32 %9, 0
  %11 = load ptr, ptr %3, align 8, !tbaa !5
  %12 = getelementptr inbounds i8, ptr %11, i64 1
  %13 = load i8, ptr %12, align 1, !tbaa !12
  %14 = zext i8 %13 to i32
  %15 = shl i32 %14, 8
  %16 = or i32 %10, %15
  %17 = load ptr, ptr %3, align 8, !tbaa !5
  %18 = getelementptr inbounds i8, ptr %17, i64 2
  %19 = load i8, ptr %18, align 1, !tbaa !12
  %20 = zext i8 %19 to i32
  %21 = shl i32 %20, 16
  %22 = or i32 %16, %21
  %23 = load ptr, ptr %3, align 8, !tbaa !5
  %24 = getelementptr inbounds i8, ptr %23, i64 3
  %25 = load i8, ptr %24, align 1, !tbaa !12
  %26 = zext i8 %25 to i32
  %27 = shl i32 %26, 24
  %28 = or i32 %22, %27
  %29 = zext i32 %28 to i64
  store i64 %29, ptr %4, align 8, !tbaa !10
  %30 = load i64, ptr %4, align 8, !tbaa !10
  %31 = load ptr, ptr %3, align 8, !tbaa !5
  %32 = call i64 @je_malloc_usable_size(ptr noundef %31) #10
  %33 = icmp ult i64 %30, %32
  br i1 %33, label %34, label %38

34:                                               ; preds = %1
  %35 = load ptr, ptr %3, align 8, !tbaa !5
  %36 = load i64, ptr %4, align 8, !tbaa !10
  %37 = call ptr @zrealloc_usable(ptr noundef %35, i64 noundef %36, ptr noundef null)
  store ptr %37, ptr %2, align 8
  store i32 1, ptr %5, align 4
  br label %40

38:                                               ; preds = %1
  %39 = load ptr, ptr %3, align 8, !tbaa !5
  store ptr %39, ptr %2, align 8
  store i32 1, ptr %5, align 4
  br label %40

40:                                               ; preds = %38, %34
  call void @llvm.lifetime.end.p0(i64 8, ptr %4) #10
  %41 = load ptr, ptr %2, align 8
  ret ptr %41
}