; Function Attrs: nounwind uwtable
define dso_local ptr @lpShrinkToFit(ptr noundef %0) local_unnamed_addr #3 {
  %2 = load i16, ptr %0, align 1
  %3 = zext i16 %2 to i64
  %4 = getelementptr inbounds nuw i8, ptr %0, i64 2
  %5 = load i8, ptr %4, align 1, !tbaa !5
  %6 = zext i8 %5 to i64
  %7 = shl nuw nsw i64 %6, 16
  %8 = or disjoint i64 %7, %3
  %9 = getelementptr inbounds nuw i8, ptr %0, i64 3
  %10 = load i8, ptr %9, align 1, !tbaa !5
  %11 = zext i8 %10 to i64
  %12 = shl nuw nsw i64 %11, 24
  %13 = or disjoint i64 %8, %12
  %14 = tail call i64 @je_malloc_usable_size(ptr noundef nonnull %0) #20
  %15 = icmp ult i64 %13, %14
  br i1 %15, label %16, label %18

16:                                               ; preds = %1
  %17 = tail call ptr @zrealloc_usable(ptr noundef nonnull %0, i64 noundef %13, ptr noundef null) #20
  br label %18

18:                                               ; preds = %1, %16
  %.0 = phi ptr [ %17, %16 ], [ %0, %1 ]
  ret ptr %.0
}